; Function Attrs: mustprogress uwtable
define internal noundef zeroext i1 @_ZNSt17_Function_handlerIFvvEN12_GLOBAL__N_118DestructionCounterEE10_M_managerERSt9_Any_dataRKS4_St18_Manager_operation(ptr noundef nonnull align 8 captures(none) dereferenceable(16) %0, ptr noundef nonnull readonly align 8 captures(none) dereferenceable(16) %1, i32 noundef %2) #4 align 2 {
  switch i32 %2, label %_ZNSt14_Function_base13_Base_managerIN12_GLOBAL__N_118DestructionCounterEE10_M_managerERSt9_Any_dataRKS4_St18_Manager_operation.exit [
    i32 0, label %4
    i32 1, label %5
    i32 3, label %8
    i32 2, label %6
  ]

4:                                                ; preds = %3
  store ptr @_ZTIN12_GLOBAL__N_118DestructionCounterE, ptr %0, align 8, !tbaa !146
  br label %_ZNSt14_Function_base13_Base_managerIN12_GLOBAL__N_118DestructionCounterEE10_M_managerERSt9_Any_dataRKS4_St18_Manager_operation.exit

5:                                                ; preds = %3
  %.val = load ptr, ptr %1, align 8, !tbaa !209
  store ptr %.val, ptr %0, align 8, !tbaa !209
  br label %_ZNSt14_Function_base13_Base_managerIN12_GLOBAL__N_118DestructionCounterEE10_M_managerERSt9_Any_dataRKS4_St18_Manager_operation.exit

6:                                                ; preds = %3
  %7 = tail call noalias noundef nonnull dereferenceable(1) ptr @_Znwm(i64 noundef 1) #32
  store ptr %7, ptr %0, align 8, !tbaa !209
  br label %_ZNSt14_Function_base13_Base_managerIN12_GLOBAL__N_118DestructionCounterEE10_M_managerERSt9_Any_dataRKS4_St18_Manager_operation.exit

8:                                                ; preds = %3
  %.val.i = load ptr, ptr %0, align 8, !tbaa !209
  %9 = icmp eq ptr %.val.i, null
  br i1 %9, label %_ZNSt14_Function_base13_Base_managerIN12_GLOBAL__N_118DestructionCounterEE10_M_managerERSt9_Any_dataRKS4_St18_Manager_operation.exit, label %10

10:                                               ; preds = %8
  %11 = load i32, ptr @_ZN12_GLOBAL__N_116DestructionCountE, align 4, !tbaa !44
  %12 = add nsw i32 %11, 1
  store i32 %12, ptr @_ZN12_GLOBAL__N_116DestructionCountE, align 4, !tbaa !44
  tail call void @_ZdlPvm(ptr noundef nonnull %.val.i, i64 noundef 1) #28
  br label %_ZNSt14_Function_base13_Base_managerIN12_GLOBAL__N_118DestructionCounterEE10_M_managerERSt9_Any_dataRKS4_St18_Manager_operation.exit

_ZNSt14_Function_base13_Base_managerIN12_GLOBAL__N_118DestructionCounterEE10_M_managerERSt9_Any_dataRKS4_St18_Manager_operation.exit: ; preds = %3, %10, %8, %6, %5, %4
  ret i1 false
}